target datalayout = "e-m:e-p270:32:32-p271:32:32-p272:64:64-i64:64-i128:128-f80:128-n8:16:32:64-S128"
target triple = "x86_64-pc-linux-gnu"

%struct.phpdbg_btree = type { i64, i64, i8, ptr }

; Function Attrs: nounwind uwtable
define hidden void @phpdbg_btree_clean(ptr noundef %0) #0 {
  %2 = alloca ptr, align 8
  store ptr %0, ptr %2, align 8
  %3 = load ptr, ptr %2, align 8
  %4 = getelementptr inbounds %struct.phpdbg_btree, ptr %3, i32 0, i32 3
  %5 = load ptr, ptr %4, align 8
  %6 = icmp ne ptr %5, null
  br i1 %6, label %7, label %22

7:                                                ; preds = %1
  %8 = load ptr, ptr %2, align 8
  %9 = getelementptr inbounds %struct.phpdbg_btree, ptr %8, i32 0, i32 3
  %10 = load ptr, ptr %9, align 8
  %11 = load ptr, ptr %2, align 8
  %12 = getelementptr inbounds %struct.phpdbg_btree, ptr %11, i32 0, i32 1
  %13 = load i64, ptr %12, align 8
  %14 = load ptr, ptr %2, align 8
  %15 = getelementptr inbounds %struct.phpdbg_btree, ptr %14, i32 0, i32 2
  %16 = load i8, ptr %15, align 8
  %17 = trunc i8 %16 to i1
  call void @phpdbg_btree_clean_recursive(ptr noundef %10, i64 noundef %13, i1 noundef zeroext %17)
  %18 = load ptr, ptr %2, align 8
  %19 = getelementptr inbounds %struct.phpdbg_btree, ptr %18, i32 0, i32 3
  store ptr null, ptr %19, align 8
  %20 = load ptr, ptr %2, align 8
  %21 = getelementptr inbounds %struct.phpdbg_btree, ptr %20, i32 0, i32 0
  store i64 0, ptr %21, align 8
  br label %22

22:                                               ; preds = %7, %1
  ret void
}