; Function Attrs: nounwind uwtable
define hidden void @phpdbg_btree_clean(ptr nocapture noundef %0) local_unnamed_addr #3 {
  %2 = getelementptr inbounds i8, ptr %0, i64 24
  %3 = load ptr, ptr %2, align 8
  %.not = icmp eq ptr %3, null
  br i1 %.not, label %11, label %4

4:                                                ; preds = %1
  %5 = getelementptr inbounds i8, ptr %0, i64 8
  %6 = load i64, ptr %5, align 8
  %7 = getelementptr inbounds i8, ptr %0, i64 16
  %8 = load i8, ptr %7, align 8
  %9 = and i8 %8, 1
  %10 = icmp ne i8 %9, 0
  tail call void @phpdbg_btree_clean_recursive(ptr noundef nonnull %3, i64 noundef %6, i1 noundef zeroext %10)
  store ptr null, ptr %2, align 8
  store i64 0, ptr %0, align 8
  br label %11

11:                                               ; preds = %4, %1
  ret void
}